ccopy_reg
_reconstructor
p0
(cMethods
DecisionTree
p1
c__builtin__
object
p2
Ntp3
Rp4
(dp5
S'ratio'
p6
I01
sS'labels'
p7
c__builtin__
set
p8
((lp9
S'republican'
p10
aS'democrat'
p11
atp12
Rp13
sS'tree'
p14
(dp15
I1
(dp16
F0.0
(dp17
I14
(dp18
F0.0
(dp19
I15
(dp20
F0.0
(dp21
I9
(dp22
F0.0
(dp23
I10
(dp24
F0.0
g10
sF1.0
g11
sF2.0
S'republican'
p25
sssF2.0
S'republican'
p26
sssF1.0
(dp27
I11
(dp28
F0.0
(dp29
I8
(dp30
F0.0
S'republican'
p31
sF1.0
S'democrat'
p32
sF2.0
S'democrat'
p33
sssF1.0
S'republican'
p34
sF2.0
(dp35
I9
(dp36
F0.0
S'republican'
p37
sF2.0
(dp38
I0
(dp39
F0.0
S'republican'
p40
sF2.0
S'democrat'
p41
sssssssF2.0
(dp42
I8
(dp43
F0.0
(dp44
I2
(dp45
F0.0
(dp46
I12
(dp47
F0.0
(dp48
I10
(dp49
F0.0
S'republican'
p50
sF2.0
(dp51
I0
(dp52
F0.0
S'republican'
p53
sF2.0
S'democrat'
p54
sssssF2.0
(dp55
I9
(dp56
F0.0
(dp57
I3
(dp58
F0.0
S'democrat'
p59
sF2.0
S'republican'
p60
sssF2.0
(dp61
I3
(dp62
F0.0
S'democrat'
p63
sF2.0
S'republican'
p64
sssssssF1.0
S'democrat'
p65
sF2.0
(dp66
I0
(dp67
F0.0
(dp68
I3
(dp69
F0.0
S'democrat'
p70
sF2.0
S'republican'
p71
sssF2.0
S'democrat'
p72
sssssF1.0
S'democrat'
p73
sF2.0
(dp74
I0
(dp75
F0.0
(dp76
I2
(dp77
F0.0
S'republican'
p78
sF2.0
S'democrat'
p79
sssF2.0
(dp80
I4
(dp81
F0.0
(dp82
I11
(dp83
F0.0
(dp84
I9
(dp85
F0.0
S'democrat'
p86
sF2.0
(dp87
I13
(dp88
F0.0
S'democrat'
p89
sF2.0
(dp90
I2
(dp91
F0.0
S'republican'
p92
sF2.0
S'democrat'
p93
sssssssF1.0
S'democrat'
p94
sssF1.0
S'democrat'
p95
sF2.0
S'republican'
p96
sssssssssF1.0
(dp97
I5
(dp98
F0.0
(dp99
I2
(dp100
F0.0
S'republican'
p101
sF2.0
S'democrat'
p102
sssF1.0
S'democrat'
p103
sF2.0
(dp104
I6
(dp105
F1.0
S'democrat'
p106
sF2.0
(dp107
I10
(dp108
F0.0
(dp109
I2
(dp110
F0.0
S'republican'
p111
sF2.0
S'democrat'
p112
sssF2.0
S'democrat'
p113
sssssssF2.0
(dp114
I9
(dp115
F0.0
(dp116
I15
(dp117
F0.0
(dp118
I3
(dp119
F0.0
S'democrat'
p120
sF2.0
S'republican'
p121
sssF1.0
S'democrat'
p122
sF2.0
(dp123
I11
(dp124
F0.0
S'democrat'
p125
sF1.0
(dp126
I12
(dp127
F0.0
(dp128
I2
(dp129
F0.0
S'republican'
p130
sF2.0
S'democrat'
p131
sssF1.0
S'democrat'
p132
sssssssF1.0
S'democrat'
p133
sF2.0
(dp134
I0
(dp135
F0.0
(dp136
I11
(dp137
F0.0
(dp138
I10
(dp139
F0.0
(dp140
I3
(dp141
F0.0
S'democrat'
p142
sF2.0
S'republican'
p143
sssF2.0
S'democrat'
p144
sssF1.0
S'democrat'
p145
sF2.0
(dp146
I6
(dp147
F0.0
S'republican'
p148
sF1.0
S'democrat'
p149
sF2.0
(dp150
I15
(dp151
F1.0
S'democrat'
p152
sF2.0
(dp153
I3
(dp154
F0.0
S'democrat'
p155
sF2.0
S'republican'
p156
sssssssssF1.0
S'democrat'
p157
sF2.0
(dp158
I10
(dp159
F0.0
(dp160
I13
(dp161
F0.0
S'democrat'
p162
sF2.0
(dp163
I2
(dp164
F0.0
(dp165
I3
(dp166
F0.0
S'democrat'
p167
sF2.0
S'republican'
p168
sssF2.0
(dp169
I3
(dp170
F0.0
S'democrat'
p171
sF2.0
S'republican'
p172
sssssssF2.0
(dp173
I5
(dp174
F0.0
S'democrat'
p175
sF2.0
(dp176
I8
(dp177
F0.0
(dp178
I3
(dp179
F0.0
S'democrat'
p180
sF2.0
S'republican'
p181
sssF2.0
S'democrat'
p182
sssssssssssssF1.0
(dp183
I12
(dp184
F0.0
(dp185
I15
(dp186
F1.0
S'democrat'
p187
sF2.0
(dp188
I11
(dp189
F0.0
(dp190
I5
(dp191
F0.0
S'democrat'
p192
sF2.0
(dp193
I3
(dp194
F0.0
S'democrat'
p195
sF2.0
S'republican'
p196
sssssF1.0
S'democrat'
p197
sssssF1.0
(dp198
I13
(dp199
F1.0
(dp200
I2
(dp201
F1.0
(dp202
I8
(dp203
F1.0
S'republican'
p204
sF2.0
S'democrat'
p205
sssF2.0
S'democrat'
p206
sssF2.0
S'republican'
p207
sssF2.0
(dp208
I15
(dp209
F0.0
S'republican'
p210
sF1.0
(dp211
I0
(dp212
F0.0
S'republican'
p213
sF1.0
S'democrat'
p214
sssF2.0
(dp215
I2
(dp216
F0.0
S'republican'
p217
sF1.0
S'republican'
p218
sF2.0
S'democrat'
p219
sssssssF2.0
(dp220
I15
(dp221
F0.0
(dp222
I11
(dp223
F0.0
S'democrat'
p224
sF1.0
(dp225
I2
(dp226
F0.0
S'republican'
p227
sF1.0
S'democrat'
p228
sssF2.0
S'republican'
p229
sssF1.0
(dp230
I14
(dp231
F0.0
(dp232
I7
(dp233
F0.0
(dp234
I13
(dp235
F1.0
S'republican'
p236
sF2.0
(dp237
I3
(dp238
F0.0
S'democrat'
p239
sF2.0
S'republican'
p240
sssssF1.0
(dp241
I4
(dp242
F1.0
S'democrat'
p243
sF2.0
S'republican'
p244
sssF2.0
S'democrat'
p245
sssF1.0
(dp246
I12
(dp247
F0.0
S'democrat'
p248
sF1.0
(dp249
I6
(dp250
F0.0
S'democrat'
p251
sF1.0
S'republican'
p252
sssF2.0
(dp253
I11
(dp254
F0.0
S'democrat'
p255
sF1.0
S'republican'
p256
sssssF2.0
(dp257
I8
(dp258
F0.0
(dp259
I7
(dp260
F0.0
S'democrat'
p261
sF1.0
S'republican'
p262
sF2.0
S'democrat'
p263
sssF1.0
S'democrat'
p264
sF2.0
S'democrat'
p265
sssssF2.0
(dp266
I8
(dp267
F0.0
(dp268
I10
(dp269
F0.0
(dp270
I9
(dp271
F0.0
(dp272
I14
(dp273
F0.0
(dp274
I0
(dp275
F0.0
S'republican'
p276
sF2.0
(dp277
I2
(dp278
F0.0
S'republican'
p279
sF2.0
(dp280
I3
(dp281
F0.0
S'democrat'
p282
sF2.0
S'republican'
p283
sssssssF1.0
S'republican'
p284
sF2.0
S'democrat'
p285
sssF2.0
S'republican'
p286
sssF1.0
S'republican'
p287
sF2.0
(dp288
I11
(dp289
F0.0
S'democrat'
p290
sF1.0
S'democrat'
p291
sF2.0
(dp292
I6
(dp293
F0.0
S'republican'
p294
sF2.0
(dp295
I2
(dp296
F0.0
S'republican'
p297
sF2.0
S'democrat'
p298
sssssssssF1.0
S'democrat'
p299
sF2.0
(dp300
I10
(dp301
F0.0
(dp302
I12
(dp303
F0.0
S'democrat'
p304
sF1.0
S'democrat'
p305
sF2.0
(dp306
I0
(dp307
F0.0
(dp308
I3
(dp309
F0.0
S'democrat'
p310
sF2.0
S'republican'
p311
sssF2.0
S'democrat'
p312
sssssF1.0
S'democrat'
p313
sF2.0
(dp314
I0
(dp315
F0.0
S'democrat'
p316
sF1.0
S'democrat'
p317
sF2.0
(dp318
I14
(dp319
F0.0
(dp320
I11
(dp321
F0.0
(dp322
I3
(dp323
F0.0
S'democrat'
p324
sF2.0
(dp325
I2
(dp326
F0.0
S'democrat'
p327
sF2.0
S'republican'
p328
sssssF1.0
S'democrat'
p329
sssF1.0
S'democrat'
p330
sF2.0
S'democrat'
p331
sssssssssssssb.