(iMethods
DecisionTree
p0
(dp1
S'labels'
p2
c__builtin__
set
p3
((lp4
S'republican'
p5
aS'democrat'
p6
atp7
Rp8
sS'tree'
p9
(dp10
I1
(dp11
F0.0
(dp12
I14
(dp13
F0.0
(dp14
I15
(dp15
F0.0
(dp16
I9
(dp17
F0.0
(dp18
I10
(dp19
F0.0
g5
sF1.0
g6
sF2.0
S'republican'
p20
sssF2.0
S'republican'
p21
sssF1.0
(dp22
I11
(dp23
F0.0
(dp24
I8
(dp25
F0.0
S'republican'
p26
sF1.0
S'democrat'
p27
sF2.0
S'democrat'
p28
sssF1.0
S'republican'
p29
sF2.0
(dp30
I9
(dp31
F0.0
S'republican'
p32
sF2.0
(dp33
I0
(dp34
F0.0
S'republican'
p35
sF2.0
S'democrat'
p36
sssssssF2.0
(dp37
I8
(dp38
F0.0
(dp39
I2
(dp40
F0.0
(dp41
I12
(dp42
F0.0
(dp43
I10
(dp44
F0.0
S'republican'
p45
sF2.0
(dp46
I0
(dp47
F0.0
S'republican'
p48
sF2.0
S'democrat'
p49
sssssF2.0
(dp50
I9
(dp51
F0.0
(dp52
I3
(dp53
F0.0
S'democrat'
p54
sF2.0
S'republican'
p55
sssF2.0
(dp56
I3
(dp57
F0.0
S'democrat'
p58
sF2.0
S'republican'
p59
sssssssF1.0
S'democrat'
p60
sF2.0
(dp61
I0
(dp62
F0.0
(dp63
I3
(dp64
F0.0
S'democrat'
p65
sF2.0
S'republican'
p66
sssF2.0
S'democrat'
p67
sssssF1.0
S'democrat'
p68
sF2.0
(dp69
I0
(dp70
F0.0
(dp71
I2
(dp72
F0.0
S'republican'
p73
sF2.0
S'democrat'
p74
sssF2.0
(dp75
I4
(dp76
F0.0
(dp77
I9
(dp78
F0.0
S'democrat'
p79
sF2.0
(dp80
I13
(dp81
F0.0
S'democrat'
p82
sF2.0
(dp83
I2
(dp84
F0.0
S'republican'
p85
sF2.0
S'democrat'
p86
sssssssF1.0
S'democrat'
p87
sF2.0
S'republican'
p88
sssssssssF1.0
(dp89
I5
(dp90
F0.0
(dp91
I2
(dp92
F0.0
S'republican'
p93
sF2.0
S'democrat'
p94
sssF1.0
S'democrat'
p95
sF2.0
(dp96
I8
(dp97
F0.0
S'democrat'
p98
sF1.0
S'democrat'
p99
sF2.0
(dp100
I2
(dp101
F0.0
S'republican'
p102
sF2.0
S'democrat'
p103
sssssssF2.0
(dp104
I9
(dp105
F0.0
(dp106
I15
(dp107
F0.0
(dp108
I3
(dp109
F0.0
S'democrat'
p110
sF2.0
S'republican'
p111
sssF1.0
S'democrat'
p112
sF2.0
(dp113
I13
(dp114
F0.0
S'democrat'
p115
sF1.0
S'democrat'
p116
sF2.0
(dp117
I2
(dp118
F0.0
(dp119
I4
(dp120
F0.0
S'democrat'
p121
sF2.0
S'republican'
p122
sssF2.0
S'democrat'
p123
sssssssF1.0
S'democrat'
p124
sF2.0
(dp125
I0
(dp126
F0.0
(dp127
I11
(dp128
F0.0
(dp129
I10
(dp130
F0.0
(dp131
I3
(dp132
F0.0
S'democrat'
p133
sF2.0
S'republican'
p134
sssF2.0
S'democrat'
p135
sssF1.0
S'democrat'
p136
sF2.0
(dp137
I6
(dp138
F0.0
S'republican'
p139
sF1.0
S'democrat'
p140
sF2.0
(dp141
I2
(dp142
F0.0
(dp143
I3
(dp144
F0.0
S'democrat'
p145
sF2.0
S'republican'
p146
sssF2.0
S'democrat'
p147
sssssssF1.0
S'democrat'
p148
sF2.0
(dp149
I10
(dp150
F0.0
(dp151
I13
(dp152
F0.0
S'democrat'
p153
sF2.0
(dp154
I2
(dp155
F0.0
(dp156
I3
(dp157
F0.0
S'democrat'
p158
sF2.0
S'republican'
p159
sssF2.0
(dp160
I3
(dp161
F0.0
S'democrat'
p162
sF2.0
S'republican'
p163
sssssssF2.0
(dp164
I5
(dp165
F0.0
S'democrat'
p166
sF2.0
(dp167
I8
(dp168
F0.0
(dp169
I3
(dp170
F0.0
S'democrat'
p171
sF2.0
S'republican'
p172
sssF2.0
S'democrat'
p173
sssssssssssssF1.0
(dp174
I12
(dp175
F0.0
(dp176
I5
(dp177
F0.0
S'democrat'
p178
sF1.0
S'democrat'
p179
sF2.0
(dp180
I8
(dp181
F0.0
(dp182
I3
(dp183
F0.0
S'democrat'
p184
sF2.0
S'republican'
p185
sssF2.0
S'democrat'
p186
sssssF1.0
(dp187
I0
(dp188
F0.0
(dp189
I2
(dp190
F1.0
S'republican'
p191
sF2.0
S'democrat'
p192
sssF1.0
(dp193
I2
(dp194
F1.0
(dp195
I8
(dp196
F1.0
S'republican'
p197
sF2.0
S'democrat'
p198
sssF2.0
S'democrat'
p199
sssF2.0
S'republican'
p200
sssF2.0
(dp201
I15
(dp202
F0.0
S'republican'
p203
sF1.0
(dp204
I0
(dp205
F0.0
S'republican'
p206
sF1.0
S'democrat'
p207
sssF2.0
(dp208
I2
(dp209
F0.0
S'republican'
p210
sF1.0
S'republican'
p211
sF2.0
S'democrat'
p212
sssssssF2.0
(dp213
I15
(dp214
F0.0
(dp215
I11
(dp216
F0.0
S'democrat'
p217
sF1.0
(dp218
I10
(dp219
F0.0
S'republican'
p220
sF1.0
S'republican'
p221
sF2.0
S'democrat'
p222
sssF2.0
S'republican'
p223
sssF1.0
(dp224
I14
(dp225
F0.0
(dp226
I7
(dp227
F0.0
(dp228
I3
(dp229
F0.0
S'democrat'
p230
sF2.0
S'republican'
p231
sssF1.0
(dp232
I0
(dp233
F0.0
S'republican'
p234
sF2.0
S'democrat'
p235
sssF2.0
S'democrat'
p236
sssF1.0
(dp237
I12
(dp238
F0.0
S'democrat'
p239
sF1.0
(dp240
I2
(dp241
F0.0
S'republican'
p242
sF2.0
S'democrat'
p243
sssF2.0
(dp244
I2
(dp245
F0.0
S'republican'
p246
sF2.0
S'democrat'
p247
sssssF2.0
(dp248
I8
(dp249
F0.0
(dp250
I7
(dp251
F0.0
S'democrat'
p252
sF1.0
S'republican'
p253
sF2.0
S'democrat'
p254
sssF1.0
S'democrat'
p255
sF2.0
S'democrat'
p256
sssssF2.0
(dp257
I8
(dp258
F0.0
(dp259
I10
(dp260
F0.0
(dp261
I9
(dp262
F0.0
(dp263
I14
(dp264
F0.0
(dp265
I0
(dp266
F0.0
S'republican'
p267
sF2.0
(dp268
I2
(dp269
F0.0
S'republican'
p270
sF2.0
(dp271
I3
(dp272
F0.0
S'democrat'
p273
sF2.0
S'republican'
p274
sssssssF1.0
S'republican'
p275
sF2.0
S'democrat'
p276
sssF2.0
S'republican'
p277
sssF1.0
S'republican'
p278
sF2.0
(dp279
I11
(dp280
F0.0
S'democrat'
p281
sF1.0
S'democrat'
p282
sF2.0
(dp283
I6
(dp284
F0.0
S'republican'
p285
sF2.0
(dp286
I2
(dp287
F0.0
S'republican'
p288
sF2.0
S'democrat'
p289
sssssssssF1.0
S'democrat'
p290
sF2.0
(dp291
I10
(dp292
F0.0
(dp293
I12
(dp294
F0.0
S'democrat'
p295
sF1.0
S'democrat'
p296
sF2.0
(dp297
I0
(dp298
F0.0
(dp299
I3
(dp300
F0.0
S'democrat'
p301
sF2.0
S'republican'
p302
sssF2.0
S'democrat'
p303
sssssF1.0
S'democrat'
p304
sF2.0
(dp305
I0
(dp306
F0.0
S'democrat'
p307
sF1.0
S'democrat'
p308
sF2.0
(dp309
I14
(dp310
F0.0
(dp311
I3
(dp312
F0.0
S'democrat'
p313
sF2.0
(dp314
I2
(dp315
F0.0
S'democrat'
p316
sF2.0
S'republican'
p317
sssssF1.0
S'democrat'
p318
sF2.0
S'democrat'
p319
sssssssssssssb.